; Function Attrs: mustprogress uwtable
define hidden noundef ptr @_ZN4cvc58internal6theory5arith2nl14transcendental19TranscendentalState8getProofEv(ptr nocapture noundef nonnull readonly align 8 dereferenceable(696) %this) local_unnamed_addr #3 align 2 {
entry:
  %ref.tmp = alloca ptr, align 8
  %d_proof = getelementptr inbounds i8, ptr %this, i64 176
  %0 = load ptr, ptr %d_proof, align 8
  %d_env = getelementptr inbounds i8, ptr %this, i64 8
  %1 = load ptr, ptr %d_env, align 8
  %call2 = tail call noundef ptr @_ZN4cvc58internal3Env14getUserContextEv(ptr noundef nonnull align 8 dereferenceable(576) %1)
  store ptr %call2, ptr %ref.tmp, align 8
  %call3 = call noundef ptr @_ZN4cvc58internal10CDProofSetINS0_7CDProofEE13allocateProofIJPNS_7context11UserContextEEEEPS2_DpOT_(ptr noundef nonnull align 8 dereferenceable(120) %0, ptr noundef nonnull align 8 dereferenceable(8) %ref.tmp)
  ret ptr %call3
}